target datalayout = "e-m:e-p270:32:32-p271:32:32-p272:64:64-i64:64-i128:128-f80:128-n8:16:32:64-S128"
target triple = "x86_64-pc-linux-gnu"

%union.pthread_mutex_t = type { %struct.__pthread_mutex_s }
%struct.__pthread_mutex_s = type { i32, i32, i32, i32, i32, i16, i16, %struct.__pthread_internal_list }
%struct.__pthread_internal_list = type { ptr, ptr }
%struct.grep_opt = type { ptr, ptr, ptr, ptr, ptr, ptr, i32, i32, i32, i32, i32, i32, i32, i32, i32, i32, i32, i32, i32, i32, i32, i32, i32, i32, i32, i32, i32, i32, i32, i32, i32, i32, [9 x [75 x i8]], i32, i32, i32, i32, i32, i32, i32, ptr, ptr, ptr }
%struct.s_xdemitconf = type { i64, i64, i64, ptr, ptr, ptr }
%struct.grep_source = type { ptr, i32, ptr, ptr, ptr, i64, ptr, ptr }
%struct.repository = type { ptr, ptr, ptr, ptr, ptr, %struct.strmap, %struct.strmap, %struct.repo_path_cache, ptr, ptr, ptr, ptr, %struct.repo_settings, ptr, ptr, ptr, ptr, ptr, ptr, i32, i32, i32, ptr, ptr, i32, i32, i8 }
%struct.strmap = type { %struct.hashmap, ptr, i8 }
%struct.hashmap = type { ptr, ptr, ptr, i32, i32, i32, i32, i8 }
%struct.repo_path_cache = type { ptr, ptr, ptr, ptr, ptr, ptr, ptr }
%struct.repo_settings = type { i32, i32, i32, i32, i32, i32, i32, i32, i32, i32, i32, i32, ptr, i32, i32, i32, i32, i32, i32, i32, i64, i64, i64 }
%struct.userdiff_driver = type { ptr, %struct.external_diff, ptr, ptr, i32, %struct.userdiff_funcname, ptr, ptr, ptr, ptr, ptr, ptr, i32 }
%struct.external_diff = type { ptr, i8 }
%struct.userdiff_funcname = type { ptr, ptr, i32 }

@.str.13 = private unnamed_addr constant [8 x i8] c"default\00", align 1
@grep_use_locks = dso_local global i32 0, align 4
@grep_attr_mutex = dso_local global %union.pthread_mutex_t zeroinitializer, align 8
@sane_ctype = external constant [256 x i8], align 16

; Function Attrs: inlinehint nounwind uwtable
define internal void @grep_attr_unlock() #2 {
  %1 = load i32, ptr @grep_use_locks, align 4, !tbaa !33
  %2 = icmp ne i32 %1, 0
  br i1 %2, label %3, label %5

3:                                                ; preds = %0
  %4 = call i32 @pthread_mutex_unlock(ptr noundef @grep_attr_mutex) #11
  br label %5

5:                                                ; preds = %3, %0
  ret void
}

; Function Attrs: inlinehint nounwind uwtable
define internal void @grep_attr_lock() #2 {
  %1 = load i32, ptr @grep_use_locks, align 4, !tbaa !33
  %2 = icmp ne i32 %1, 0
  br i1 %2, label %3, label %5

3:                                                ; preds = %0
  %4 = call i32 @pthread_mutex_lock(ptr noundef @grep_attr_mutex) #11
  br label %5

5:                                                ; preds = %3, %0
  ret void
}

; Function Attrs: nounwind uwtable
define dso_local void @grep_source_load_driver(ptr noundef %0, ptr noundef %1) #0 {
  %3 = alloca ptr, align 8
  %4 = alloca ptr, align 8
  store ptr %0, ptr %3, align 8, !tbaa !85
  store ptr %1, ptr %4, align 8, !tbaa !140
  %5 = load ptr, ptr %3, align 8, !tbaa !85
  %6 = getelementptr inbounds nuw %struct.grep_source, ptr %5, i32 0, i32 7
  %7 = load ptr, ptr %6, align 8, !tbaa !119
  %8 = icmp ne ptr %7, null
  br i1 %8, label %9, label %10

9:                                                ; preds = %2
  br label %33

10:                                               ; preds = %2
  call void @grep_attr_lock()
  %11 = load ptr, ptr %3, align 8, !tbaa !85
  %12 = getelementptr inbounds nuw %struct.grep_source, ptr %11, i32 0, i32 6
  %13 = load ptr, ptr %12, align 8, !tbaa !135
  %14 = icmp ne ptr %13, null
  br i1 %14, label %15, label %23

15:                                               ; preds = %10
  %16 = load ptr, ptr %4, align 8, !tbaa !140
  %17 = load ptr, ptr %3, align 8, !tbaa !85
  %18 = getelementptr inbounds nuw %struct.grep_source, ptr %17, i32 0, i32 6
  %19 = load ptr, ptr %18, align 8, !tbaa !135
  %20 = call ptr @userdiff_find_by_path(ptr noundef %16, ptr noundef %19)
  %21 = load ptr, ptr %3, align 8, !tbaa !85
  %22 = getelementptr inbounds nuw %struct.grep_source, ptr %21, i32 0, i32 7
  store ptr %20, ptr %22, align 8, !tbaa !119
  br label %23

23:                                               ; preds = %15, %10
  %24 = load ptr, ptr %3, align 8, !tbaa !85
  %25 = getelementptr inbounds nuw %struct.grep_source, ptr %24, i32 0, i32 7
  %26 = load ptr, ptr %25, align 8, !tbaa !119
  %27 = icmp ne ptr %26, null
  br i1 %27, label %32, label %28

28:                                               ; preds = %23
  %29 = call ptr @userdiff_find_by_name(ptr noundef @.str.13)
  %30 = load ptr, ptr %3, align 8, !tbaa !85
  %31 = getelementptr inbounds nuw %struct.grep_source, ptr %30, i32 0, i32 7
  store ptr %29, ptr %31, align 8, !tbaa !119
  br label %32

32:                                               ; preds = %28, %23
  call void @grep_attr_unlock()
  br label %33

33:                                               ; preds = %32, %9
  ret void
}

; Function Attrs: nounwind uwtable
define internal i32 @match_funcname(ptr noundef %0, ptr noundef %1, ptr noundef %2, ptr noundef %3) #0 {
  %5 = alloca i32, align 4
  %6 = alloca ptr, align 8
  %7 = alloca ptr, align 8
  %8 = alloca ptr, align 8
  %9 = alloca ptr, align 8
  %10 = alloca ptr, align 8
  %11 = alloca ptr, align 8
  %12 = alloca [1 x i8], align 1
  %13 = alloca i32, align 4
  store ptr %0, ptr %6, align 8, !tbaa !19
  store ptr %1, ptr %7, align 8, !tbaa !85
  store ptr %2, ptr %8, align 8, !tbaa !9
  store ptr %3, ptr %9, align 8, !tbaa !9
  call void @llvm.lifetime.start.p0(i64 8, ptr %10) #11
  %14 = load ptr, ptr %6, align 8, !tbaa !19
  %15 = getelementptr inbounds nuw %struct.grep_opt, ptr %14, i32 0, i32 40
  %16 = load ptr, ptr %15, align 8, !tbaa !121
  store ptr %16, ptr %10, align 8, !tbaa !174
  %17 = load ptr, ptr %10, align 8, !tbaa !174
  %18 = icmp ne ptr %17, null
  br i1 %18, label %19, label %54

19:                                               ; preds = %4
  %20 = load ptr, ptr %10, align 8, !tbaa !174
  %21 = getelementptr inbounds nuw %struct.s_xdemitconf, ptr %20, i32 0, i32 3
  %22 = load ptr, ptr %21, align 8, !tbaa !176
  %23 = icmp ne ptr %22, null
  br i1 %23, label %54, label %24

24:                                               ; preds = %19
  %25 = load ptr, ptr %7, align 8, !tbaa !85
  %26 = load ptr, ptr %6, align 8, !tbaa !19
  %27 = getelementptr inbounds nuw %struct.grep_opt, ptr %26, i32 0, i32 5
  %28 = load ptr, ptr %27, align 8, !tbaa !39
  %29 = getelementptr inbounds nuw %struct.repository, ptr %28, i32 0, i32 15
  %30 = load ptr, ptr %29, align 8, !tbaa !101
  call void @grep_source_load_driver(ptr noundef %25, ptr noundef %30)
  %31 = load ptr, ptr %7, align 8, !tbaa !85
  %32 = getelementptr inbounds nuw %struct.grep_source, ptr %31, i32 0, i32 7
  %33 = load ptr, ptr %32, align 8, !tbaa !119
  %34 = getelementptr inbounds nuw %struct.userdiff_driver, ptr %33, i32 0, i32 5
  %35 = getelementptr inbounds nuw %struct.userdiff_funcname, ptr %34, i32 0, i32 0
  %36 = load ptr, ptr %35, align 8, !tbaa !178
  %37 = icmp ne ptr %36, null
  br i1 %37, label %38, label %50

38:                                               ; preds = %24
  call void @llvm.lifetime.start.p0(i64 8, ptr %11) #11
  %39 = load ptr, ptr %7, align 8, !tbaa !85
  %40 = getelementptr inbounds nuw %struct.grep_source, ptr %39, i32 0, i32 7
  %41 = load ptr, ptr %40, align 8, !tbaa !119
  %42 = getelementptr inbounds nuw %struct.userdiff_driver, ptr %41, i32 0, i32 5
  store ptr %42, ptr %11, align 8, !tbaa !179
  %43 = load ptr, ptr %10, align 8, !tbaa !174
  %44 = load ptr, ptr %11, align 8, !tbaa !179
  %45 = getelementptr inbounds nuw %struct.userdiff_funcname, ptr %44, i32 0, i32 0
  %46 = load ptr, ptr %45, align 8, !tbaa !181
  %47 = load ptr, ptr %11, align 8, !tbaa !179
  %48 = getelementptr inbounds nuw %struct.userdiff_funcname, ptr %47, i32 0, i32 2
  %49 = load i32, ptr %48, align 8, !tbaa !182
  call void @xdiff_set_find_func(ptr noundef %43, ptr noundef %46, i32 noundef %49)
  call void @llvm.lifetime.end.p0(i64 8, ptr %11) #11
  br label %53

50:                                               ; preds = %24
  %51 = load ptr, ptr %6, align 8, !tbaa !19
  %52 = getelementptr inbounds nuw %struct.grep_opt, ptr %51, i32 0, i32 40
  store ptr null, ptr %52, align 8, !tbaa !121
  store ptr null, ptr %10, align 8, !tbaa !174
  br label %53

53:                                               ; preds = %50, %38
  br label %54

54:                                               ; preds = %53, %19, %4
  %55 = load ptr, ptr %10, align 8, !tbaa !174
  %56 = icmp ne ptr %55, null
  br i1 %56, label %57, label %74

57:                                               ; preds = %54
  call void @llvm.lifetime.start.p0(i64 1, ptr %12) #11
  %58 = load ptr, ptr %10, align 8, !tbaa !174
  %59 = getelementptr inbounds nuw %struct.s_xdemitconf, ptr %58, i32 0, i32 3
  %60 = load ptr, ptr %59, align 8, !tbaa !176
  %61 = load ptr, ptr %8, align 8, !tbaa !9
  %62 = load ptr, ptr %9, align 8, !tbaa !9
  %63 = load ptr, ptr %8, align 8, !tbaa !9
  %64 = ptrtoint ptr %62 to i64
  %65 = ptrtoint ptr %63 to i64
  %66 = sub i64 %64, %65
  %67 = getelementptr inbounds [1 x i8], ptr %12, i64 0, i64 0
  %68 = load ptr, ptr %10, align 8, !tbaa !174
  %69 = getelementptr inbounds nuw %struct.s_xdemitconf, ptr %68, i32 0, i32 4
  %70 = load ptr, ptr %69, align 8, !tbaa !183
  %71 = call i64 %60(ptr noundef %61, i64 noundef %66, ptr noundef %67, i64 noundef 1, ptr noundef %70)
  %72 = icmp sge i64 %71, 0
  %73 = zext i1 %72 to i32
  store i32 %73, ptr %5, align 4
  store i32 1, ptr %13, align 4
  call void @llvm.lifetime.end.p0(i64 1, ptr %12) #11
  br label %100

74:                                               ; preds = %54
  %75 = load ptr, ptr %8, align 8, !tbaa !9
  %76 = load ptr, ptr %9, align 8, !tbaa !9
  %77 = icmp eq ptr %75, %76
  br i1 %77, label %78, label %79

78:                                               ; preds = %74
  store i32 0, ptr %5, align 4
  store i32 1, ptr %13, align 4
  br label %100

79:                                               ; preds = %74
  %80 = load ptr, ptr %8, align 8, !tbaa !9
  %81 = load i8, ptr %80, align 1, !tbaa !36
  %82 = zext i8 %81 to i64
  %83 = getelementptr inbounds nuw [256 x i8], ptr @sane_ctype, i64 0, i64 %82
  %84 = load i8, ptr %83, align 1, !tbaa !36
  %85 = zext i8 %84 to i32
  %86 = and i32 %85, 4
  %87 = icmp ne i32 %86, 0
  br i1 %87, label %98, label %88

88:                                               ; preds = %79
  %89 = load ptr, ptr %8, align 8, !tbaa !9
  %90 = load i8, ptr %89, align 1, !tbaa !36
  %91 = sext i8 %90 to i32
  %92 = icmp eq i32 %91, 95
  br i1 %92, label %98, label %93

93:                                               ; preds = %88
  %94 = load ptr, ptr %8, align 8, !tbaa !9
  %95 = load i8, ptr %94, align 1, !tbaa !36
  %96 = sext i8 %95 to i32
  %97 = icmp eq i32 %96, 36
  br i1 %97, label %98, label %99

98:                                               ; preds = %93, %88, %79
  store i32 1, ptr %5, align 4
  store i32 1, ptr %13, align 4
  br label %100

99:                                               ; preds = %93
  store i32 0, ptr %5, align 4
  store i32 1, ptr %13, align 4
  br label %100

100:                                              ; preds = %99, %98, %78, %57
  call void @llvm.lifetime.end.p0(i64 8, ptr %10) #11
  %101 = load i32, ptr %5, align 4
  ret i32 %101
}