; Function Attrs: nounwind uwtable
define internal fastcc range(i32 0, 2) i32 @match_funcname(ptr noundef captures(none) %0, ptr noundef captures(none) %1, ptr noundef %2, ptr noundef %3) unnamed_addr #0 {
  %5 = alloca [1 x i8], align 1
  %6 = getelementptr inbounds nuw i8, ptr %0, i64 856
  %7 = load ptr, ptr %6, align 8, !tbaa !109
  %.not = icmp eq ptr %7, null
  br i1 %.not, label %51, label %8

8:                                                ; preds = %4
  %9 = getelementptr inbounds nuw i8, ptr %7, i64 24
  %10 = load ptr, ptr %9, align 8, !tbaa !151
  %.not27 = icmp eq ptr %10, null
  br i1 %.not27, label %11, label %42

11:                                               ; preds = %8
  %12 = getelementptr inbounds nuw i8, ptr %0, i64 40
  %13 = load ptr, ptr %12, align 8, !tbaa !25
  %14 = getelementptr inbounds nuw i8, ptr %13, i64 384
  %15 = load ptr, ptr %14, align 8, !tbaa !88
  %16 = getelementptr inbounds nuw i8, ptr %1, i64 56
  %17 = load ptr, ptr %16, align 8, !tbaa !106
  %.not.i = icmp eq ptr %17, null
  br i1 %.not.i, label %18, label %grep_source_load_driver.exit

18:                                               ; preds = %11
  %19 = load i32, ptr @grep_use_locks, align 4, !tbaa !49
  %.not.i.i = icmp eq i32 %19, 0
  br i1 %.not.i.i, label %grep_attr_lock.exit.i, label %20

20:                                               ; preds = %18
  %21 = tail call i32 @pthread_mutex_lock(ptr noundef nonnull @grep_attr_mutex) #18
  br label %grep_attr_lock.exit.i

grep_attr_lock.exit.i:                            ; preds = %20, %18
  %22 = getelementptr inbounds nuw i8, ptr %1, i64 48
  %23 = load ptr, ptr %22, align 8, !tbaa !107
  %.not7.i = icmp eq ptr %23, null
  br i1 %.not7.i, label %thread-pre-split.i, label %24

24:                                               ; preds = %grep_attr_lock.exit.i
  %25 = tail call ptr @userdiff_find_by_path(ptr noundef %15, ptr noundef nonnull %23) #18
  store ptr %25, ptr %16, align 8, !tbaa !106
  br label %26

thread-pre-split.i:                               ; preds = %grep_attr_lock.exit.i
  %.pr.i = load ptr, ptr %16, align 8, !tbaa !106
  br label %26

26:                                               ; preds = %thread-pre-split.i, %24
  %27 = phi ptr [ %.pr.i, %thread-pre-split.i ], [ %25, %24 ]
  %.not8.i = icmp eq ptr %27, null
  br i1 %.not8.i, label %28, label %30

28:                                               ; preds = %26
  %29 = tail call ptr @userdiff_find_by_name(ptr noundef nonnull @.str.13) #18
  store ptr %29, ptr %16, align 8, !tbaa !106
  br label %30

30:                                               ; preds = %28, %26
  %31 = phi ptr [ %29, %28 ], [ %27, %26 ]
  %32 = load i32, ptr @grep_use_locks, align 4, !tbaa !49
  %.not.i9.i = icmp eq i32 %32, 0
  br i1 %.not.i9.i, label %grep_source_load_driver.exit, label %33

33:                                               ; preds = %30
  %34 = tail call i32 @pthread_mutex_unlock(ptr noundef nonnull @grep_attr_mutex) #18
  %.pre = load ptr, ptr %16, align 8, !tbaa !106
  br label %grep_source_load_driver.exit

grep_source_load_driver.exit:                     ; preds = %11, %30, %33
  %35 = phi ptr [ %17, %11 ], [ %31, %30 ], [ %.pre, %33 ]
  %36 = getelementptr inbounds nuw i8, ptr %35, i64 48
  %37 = load ptr, ptr %36, align 8, !tbaa !153
  %.not28 = icmp eq ptr %37, null
  br i1 %.not28, label %41, label %38

38:                                               ; preds = %grep_source_load_driver.exit
  %39 = getelementptr inbounds nuw i8, ptr %35, i64 64
  %40 = load i32, ptr %39, align 8, !tbaa !154
  tail call void @xdiff_set_find_func(ptr noundef nonnull %7, ptr noundef nonnull %37, i32 noundef %40) #18
  %.pre35 = load ptr, ptr %9, align 8, !tbaa !151
  br label %42

41:                                               ; preds = %grep_source_load_driver.exit
  store ptr null, ptr %6, align 8, !tbaa !109
  br label %51

42:                                               ; preds = %8, %38
  %43 = phi ptr [ %10, %8 ], [ %.pre35, %38 ]
  call void @llvm.lifetime.start.p0(i64 1, ptr nonnull %5) #18
  %44 = ptrtoint ptr %3 to i64
  %45 = ptrtoint ptr %2 to i64
  %46 = sub i64 %44, %45
  %47 = getelementptr inbounds nuw i8, ptr %7, i64 32
  %48 = load ptr, ptr %47, align 8, !tbaa !155
  %49 = call i64 %43(ptr noundef %2, i64 noundef %46, ptr noundef nonnull %5, i64 noundef 1, ptr noundef %48) #18
  %50 = icmp sgt i64 %49, -1
  call void @llvm.lifetime.end.p0(i64 1, ptr nonnull %5) #18
  br label %59

51:                                               ; preds = %41, %4
  %52 = icmp eq ptr %2, %3
  br i1 %52, label %59, label %53

53:                                               ; preds = %51
  %54 = load i8, ptr %2, align 1, !tbaa !23
  %55 = zext i8 %54 to i64
  %56 = getelementptr inbounds nuw [256 x i8], ptr @sane_ctype, i64 0, i64 %55
  %57 = load i8, ptr %56, align 1, !tbaa !23
  %.fr34 = freeze i8 %57
  %58 = and i8 %.fr34, 4
  %.not30.not = icmp eq i8 %58, 0
  br i1 %.not30.not, label %switch.early.test, label %59

switch.early.test:                                ; preds = %53
  %switch.selectcmp.case1 = icmp eq i8 %54, 95
  %switch.selectcmp.case2 = icmp eq i8 %54, 36
  %switch.selectcmp = or i1 %switch.selectcmp.case1, %switch.selectcmp.case2
  br label %59

59:                                               ; preds = %switch.early.test, %53, %51, %42
  %.0.shrunk = phi i1 [ %50, %42 ], [ false, %51 ], [ true, %53 ], [ %switch.selectcmp, %switch.early.test ]
  %.0 = zext i1 %.0.shrunk to i32
  ret i32 %.0
}